; ModuleID = 'bench/linux/original/exec_domain.ll'
source_filename = "bench/linux/original/exec_domain.ll"
target datalayout = "e-m:e-p270:32:32-p271:32:32-p272:64:64-i64:64-i128:128-f80:128-n8:16:32:64-S128"
target triple = "x86_64-unknown-linux-gnu"

module asm ".section\09\22.initcall6.init\22, \22a\22\09\09"
module asm "__initcall__kmod_exec_domain__385_35_proc_execdomains_init6:\09\09\09"
module asm ".long\09proc_execdomains_init - .\09"
module asm ".previous\09\09\09\09\09"

%struct.pcpu_hot = type { %union.anon.13 }
%union.anon.13 = type { %struct.anon.14, [16 x i8] }
%struct.anon.14 = type { ptr, i32, i32, i64, i64, ptr, i16, i8 }

@__UNIQUE_ID___addressable_proc_execdomains_init386 = internal global ptr @proc_execdomains_init, section ".discard.addressable", align 8
@.str = private unnamed_addr constant [12 x i8] c"execdomains\00", align 1
@.str.1 = private unnamed_addr constant [31 x i8] c"0-0\09Linux           \09[kernel]\0A\00", align 1
@pcpu_hot = external dso_local global %struct.pcpu_hot, section ".data..percpu..shared_aligned", align 64
@llvm.compiler.used = appending global [1 x ptr] [ptr @__UNIQUE_ID___addressable_proc_execdomains_init386], section "llvm.metadata"

; Function Attrs: cold fn_ret_thunk_extern nounwind null_pointer_is_valid optsize
define internal noundef i32 @proc_execdomains_init() #0 section ".init.text" align 16 {
  %1 = tail call ptr @proc_create_single_data(ptr noundef nonnull @.str, i16 noundef zeroext 0, ptr noundef null, ptr noundef nonnull @execdomains_proc_show, ptr noundef null) #4
  ret i32 0
}

; Function Attrs: fn_ret_thunk_extern nounwind null_pointer_is_valid memory(readwrite, inaccessiblemem: none)
define dso_local i64 @__x64_sys_personality(ptr nocapture noundef readonly %0) local_unnamed_addr #1 align 16 {
  %2 = getelementptr inbounds i8, ptr %0, i64 112
  %3 = load i64, ptr %2, align 8
  %4 = trunc i64 %3 to i32
  %5 = tail call i64 asm "movq %gs:${1:P}, $0", "=r,p,~{dirflag},~{fpsr},~{flags}"(ptr nonnull @pcpu_hot) #5, !srcloc !5
  %6 = inttoptr i64 %5 to ptr
  %7 = getelementptr inbounds i8, ptr %6, i64 1240
  %8 = load i32, ptr %7, align 8
  %9 = icmp eq i32 %4, -1
  br i1 %9, label %11, label %10

10:                                               ; preds = %1
  store i32 %4, ptr %7, align 8
  br label %11

11:                                               ; preds = %10, %1
  %12 = zext i32 %8 to i64
  ret i64 %12
}

; Function Attrs: fn_ret_thunk_extern nounwind null_pointer_is_valid memory(readwrite, inaccessiblemem: none)
define dso_local i64 @__ia32_sys_personality(ptr nocapture noundef readonly %0) local_unnamed_addr #1 align 16 {
  %2 = getelementptr inbounds i8, ptr %0, i64 40
  %3 = load i64, ptr %2, align 8
  %4 = trunc i64 %3 to i32
  %5 = tail call i64 asm "movq %gs:${1:P}, $0", "=r,p,~{dirflag},~{fpsr},~{flags}"(ptr nonnull @pcpu_hot) #5, !srcloc !5
  %6 = inttoptr i64 %5 to ptr
  %7 = getelementptr inbounds i8, ptr %6, i64 1240
  %8 = load i32, ptr %7, align 8
  %9 = icmp eq i32 %4, -1
  br i1 %9, label %11, label %10

10:                                               ; preds = %1
  store i32 %4, ptr %7, align 8
  br label %11

11:                                               ; preds = %10, %1
  %12 = zext i32 %8 to i64
  ret i64 %12
}

; Function Attrs: null_pointer_is_valid
declare dso_local ptr @proc_create_single_data(ptr noundef, i16 noundef zeroext, ptr noundef, ptr noundef, ptr noundef) local_unnamed_addr #2

; Function Attrs: fn_ret_thunk_extern nounwind null_pointer_is_valid
define internal noundef i32 @execdomains_proc_show(ptr noundef %0, ptr nocapture readnone %1) #3 align 16 {
  tail call void @seq_puts(ptr noundef %0, ptr noundef nonnull @.str.1) #4
  ret i32 0
}

; Function Attrs: null_pointer_is_valid
declare dso_local void @seq_puts(ptr noundef, ptr noundef) local_unnamed_addr #2


!llvm.module.flags = !{!0, !1, !2, !3, !4}

!0 = !{i32 1, !"wchar_size", i32 2}
!1 = !{i32 8, !"cf-protection-branch", i32 1}
!2 = !{i32 4, !"function_return_thunk_extern", i32 1}
!3 = !{i32 4, !"indirect_branch_cs_prefix", i32 1}
!4 = !{i32 4, !"SkipRaxSetup", i32 1}
!5 = !{i64 2148253575}
